csip
_unpickle_type
p0
(S'PyKDL'
p1
S'Frame'
p2
(g0
(g1
S'Rotation'
p3
(F0.8070469810792495
F0.01970581185193198
F0.5901583273242237
F0.044104540024020304
F0.9946395555474603
F-0.09352509871483854
F-0.5888378043911063
F0.10150781014092937
F0.801851734799055
tp4
tp5
Rp6
g0
(g1
S'Vector'
p7
(F-0.013266259369159882
F0.0019903817211215117
F-0.17204588131337983
tp8
tp9
Rp10
tp11
tp12
Rp13
.